target datalayout = "e-m:e-p270:32:32-p271:32:32-p272:64:64-i64:64-i128:128-f80:128-n8:16:32:64-S128"
target triple = "x86_64-pc-linux-gnu"

%class.anon = type { ptr }
%class.anon.84 = type { ptr }
%"struct.google::protobuf::internal::DescriptorTable" = type { i8, i8, i32, ptr, ptr, ptr, ptr, i32, i32, ptr, ptr, ptr, ptr, ptr, ptr }
%class.anon.85 = type { i8 }

@_ZSt15__once_callable = external thread_local global ptr, align 8

; Function Attrs: inlinehint mustprogress uwtable
define internal void @"_ZZN6google8protobuf8internal17AssignDescriptorsEPFPKNS1_15DescriptorTableEvEPSt9once_flagRKNS0_8MetadataEENK3$_0clEv"(ptr noundef nonnull align 8 dereferenceable(8) %0) #7 align 2 {
  %2 = alloca ptr, align 8
  %3 = alloca ptr, align 8
  store ptr %0, ptr %2, align 8, !tbaa !56
  %4 = load ptr, ptr %2, align 8
  call void @llvm.lifetime.start.p0(i64 8, ptr %3) #3
  %5 = getelementptr inbounds nuw %class.anon, ptr %4, i32 0, i32 0
  %6 = load ptr, ptr %5, align 8, !tbaa !283
  %7 = call noundef ptr %6()
  store ptr %7, ptr %3, align 8, !tbaa !286
  %8 = load ptr, ptr %3, align 8, !tbaa !286
  %9 = load ptr, ptr %3, align 8, !tbaa !286
  %10 = getelementptr inbounds nuw %"struct.google::protobuf::internal::DescriptorTable", ptr %9, i32 0, i32 1
  %11 = load i8, ptr %10, align 1, !tbaa !288, !range !142, !noundef !143
  %12 = trunc i8 %11 to i1
  call void @_ZN6google8protobuf12_GLOBAL__N_121AssignDescriptorsImplEPKNS0_8internal15DescriptorTableEb(ptr noundef %8, i1 noundef zeroext %12)
  call void @llvm.lifetime.end.p0(i64 8, ptr %3) #3
  ret void
}

; Function Attrs: mustprogress uwtable
define internal void @"_ZSt13__invoke_implIvZN6google8protobuf8internal17AssignDescriptorsEPFPKNS2_15DescriptorTableEvEPSt9once_flagRKNS1_8MetadataEE3$_0JEET_St14__invoke_otherOT0_DpOT1_"(ptr noundef nonnull align 8 dereferenceable(8) %0) #4 {
  %2 = alloca ptr, align 8
  store ptr %0, ptr %2, align 8, !tbaa !56
  %3 = load ptr, ptr %2, align 8, !tbaa !56
  call void @"_ZZN6google8protobuf8internal17AssignDescriptorsEPFPKNS1_15DescriptorTableEvEPSt9once_flagRKNS0_8MetadataEENK3$_0clEv"(ptr noundef nonnull align 8 dereferenceable(8) %3)
  ret void
}

; Function Attrs: mustprogress uwtable
define internal void @"_ZSt8__invokeIZN6google8protobuf8internal17AssignDescriptorsEPFPKNS2_15DescriptorTableEvEPSt9once_flagRKNS1_8MetadataEE3$_0JEENSt15__invoke_resultIT_JDpT0_EE4typeEOSF_DpOSG_"(ptr noundef nonnull align 8 dereferenceable(8) %0) #4 {
  %2 = alloca ptr, align 8
  store ptr %0, ptr %2, align 8, !tbaa !56
  %3 = load ptr, ptr %2, align 8, !tbaa !56
  call void @"_ZSt13__invoke_implIvZN6google8protobuf8internal17AssignDescriptorsEPFPKNS2_15DescriptorTableEvEPSt9once_flagRKNS1_8MetadataEE3$_0JEET_St14__invoke_otherOT0_DpOT1_"(ptr noundef nonnull align 8 dereferenceable(8) %3)
  ret void
}

; Function Attrs: inlinehint mustprogress uwtable
define internal void @"_ZZSt9call_onceIZN6google8protobuf8internal17AssignDescriptorsEPFPKNS2_15DescriptorTableEvEPSt9once_flagRKNS1_8MetadataEE3$_0JEEvRS8_OT_DpOT0_ENKUlvE_clEv"(ptr noundef nonnull align 8 dereferenceable(8) %0) #7 align 2 {
  %2 = alloca ptr, align 8
  store ptr %0, ptr %2, align 8, !tbaa !56
  %3 = load ptr, ptr %2, align 8
  %4 = getelementptr inbounds nuw %class.anon.84, ptr %3, i32 0, i32 0
  %5 = load ptr, ptr %4, align 8, !tbaa !774
  call void @"_ZSt8__invokeIZN6google8protobuf8internal17AssignDescriptorsEPFPKNS2_15DescriptorTableEvEPSt9once_flagRKNS1_8MetadataEE3$_0JEENSt15__invoke_resultIT_JDpT0_EE4typeEOSF_DpOSG_"(ptr noundef nonnull align 8 dereferenceable(8) %5)
  ret void
}

; Function Attrs: inlinehint mustprogress uwtable
define internal void @"_ZZNSt9once_flag18_Prepare_executionC1IZSt9call_onceIZN6google8protobuf8internal17AssignDescriptorsEPFPKNS5_15DescriptorTableEvEPS_RKNS4_8MetadataEE3$_0JEEvRS_OT_DpOT0_EUlvE_EERSH_ENKUlvE_clEv"(ptr noundef nonnull align 1 dereferenceable(1) %0) #7 align 2 {
  %2 = alloca ptr, align 8
  store ptr %0, ptr %2, align 8, !tbaa !56
  %3 = call align 8 ptr @llvm.threadlocal.address.p0(ptr align 8 @_ZSt15__once_callable)
  %4 = load ptr, ptr %3, align 8, !tbaa !56
  call void @"_ZZSt9call_onceIZN6google8protobuf8internal17AssignDescriptorsEPFPKNS2_15DescriptorTableEvEPSt9once_flagRKNS1_8MetadataEE3$_0JEEvRS8_OT_DpOT0_ENKUlvE_clEv"(ptr noundef nonnull align 8 dereferenceable(8) %4)
  ret void
}

; Function Attrs: inlinehint mustprogress uwtable
define internal void @"_ZZNSt9once_flag18_Prepare_executionC1IZSt9call_onceIZN6google8protobuf8internal17AssignDescriptorsEPFPKNS5_15DescriptorTableEvEPS_RKNS4_8MetadataEE3$_0JEEvRS_OT_DpOT0_EUlvE_EERSH_ENUlvE_8__invokeEv"() #7 align 2 {
  %1 = alloca %class.anon.85, align 1
  call void @"_ZZNSt9once_flag18_Prepare_executionC1IZSt9call_onceIZN6google8protobuf8internal17AssignDescriptorsEPFPKNS5_15DescriptorTableEvEPS_RKNS4_8MetadataEE3$_0JEEvRS_OT_DpOT0_EUlvE_EERSH_ENKUlvE_clEv"(ptr noundef nonnull align 1 dereferenceable(1) %1)
  ret void
}