; Function Attrs: inlinehint mustprogress uwtable
define internal void @"_ZZNSt9once_flag18_Prepare_executionC1IZSt9call_onceIZN6google8protobuf8internal17AssignDescriptorsEPFPKNS5_15DescriptorTableEvEPS_RKNS4_8MetadataEE3$_0JEEvRS_OT_DpOT0_EUlvE_EERSH_ENUlvE_8__invokeEv"() #8 align 2 {
  %1 = tail call align 8 ptr @llvm.threadlocal.address.p0(ptr align 8 @_ZSt15__once_callable)
  %2 = load ptr, ptr %1, align 8, !tbaa !71
  %.val.i = load ptr, ptr %2, align 8, !tbaa !372
  %.val.val.i = load ptr, ptr %.val.i, align 8, !tbaa !239
  %3 = tail call noundef ptr %.val.val.i()
  %4 = getelementptr inbounds nuw i8, ptr %3, i64 1
  %5 = load i8, ptr %4, align 1, !tbaa !246, !range !68, !noundef !69
  %6 = trunc nuw i8 %5 to i1
  tail call void @_ZN6google8protobuf12_GLOBAL__N_121AssignDescriptorsImplEPKNS0_8internal15DescriptorTableEb(ptr noundef %3, i1 noundef zeroext %6)
  ret void
}